target datalayout = "e-m:e-p270:32:32-p271:32:32-p272:64:64-i64:64-i128:128-f80:128-n8:16:32:64-S128"
target triple = "x86_64-pc-linux-gnu"

%"class.fmt::v11::basic_cstring_view" = type { ptr }
%"class.fmt::v11::file" = type { i32 }
%"class.fmt::v11::detail::buffer" = type { ptr, i64, i64, ptr }
%"class.fmt::v11::ostream" = type <{ %"class.fmt::v11::detail::buffer", %"class.fmt::v11::file", [4 x i8] }>
%"struct.fmt::v11::detail::ostream_params" = type { i32, i64 }

@_ZN3fmt3v114fileC1ENS0_18basic_cstring_viewIcEEi = hidden unnamed_addr alias void (ptr, ptr, i32), ptr @_ZN3fmt3v114fileC2ENS0_18basic_cstring_viewIcEEi
@_ZN3fmt3v114fileD1Ev = hidden unnamed_addr alias void (ptr), ptr @_ZN3fmt3v114fileD2Ev

; Function Attrs: mustprogress nounwind uwtable
define linkonce_odr hidden void @_ZN3fmt3v116detail6bufferIcE3setEPcm(ptr noundef nonnull align 8 dereferenceable(32) %0, ptr noundef %1, i64 noundef %2) #0 comdat align 2 {
  %4 = alloca ptr, align 8
  %5 = alloca ptr, align 8
  %6 = alloca i64, align 8
  store ptr %0, ptr %4, align 8, !tbaa !94
  store ptr %1, ptr %5, align 8, !tbaa !17
  store i64 %2, ptr %6, align 8, !tbaa !26
  %7 = load ptr, ptr %4, align 8
  %8 = load ptr, ptr %5, align 8, !tbaa !17
  %9 = getelementptr inbounds nuw %"class.fmt::v11::detail::buffer", ptr %7, i32 0, i32 0
  store ptr %8, ptr %9, align 8, !tbaa !107
  %10 = load i64, ptr %6, align 8, !tbaa !26
  %11 = getelementptr inbounds nuw %"class.fmt::v11::detail::buffer", ptr %7, i32 0, i32 2
  store i64 %10, ptr %11, align 8, !tbaa !98
  ret void
}

; Function Attrs: mustprogress nounwind uwtable
define linkonce_odr hidden void @_ZN3fmt3v116detail6bufferIcEC2EPFvRS3_mEPcmm(ptr noundef nonnull align 8 dereferenceable(32) %0, ptr noundef %1, ptr noundef %2, i64 noundef %3, i64 noundef %4) unnamed_addr #0 comdat align 2 {
  %6 = alloca ptr, align 8
  %7 = alloca ptr, align 8
  %8 = alloca ptr, align 8
  %9 = alloca i64, align 8
  %10 = alloca i64, align 8
  store ptr %0, ptr %6, align 8, !tbaa !94
  store ptr %1, ptr %7, align 8, !tbaa !28
  store ptr %2, ptr %8, align 8, !tbaa !17
  store i64 %3, ptr %9, align 8, !tbaa !26
  store i64 %4, ptr %10, align 8, !tbaa !26
  %11 = load ptr, ptr %6, align 8
  %12 = getelementptr inbounds nuw %"class.fmt::v11::detail::buffer", ptr %11, i32 0, i32 0
  %13 = load ptr, ptr %8, align 8, !tbaa !17
  store ptr %13, ptr %12, align 8, !tbaa !107
  %14 = getelementptr inbounds nuw %"class.fmt::v11::detail::buffer", ptr %11, i32 0, i32 1
  %15 = load i64, ptr %9, align 8, !tbaa !26
  store i64 %15, ptr %14, align 8, !tbaa !96
  %16 = getelementptr inbounds nuw %"class.fmt::v11::detail::buffer", ptr %11, i32 0, i32 2
  %17 = load i64, ptr %10, align 8, !tbaa !26
  store i64 %17, ptr %16, align 8, !tbaa !98
  %18 = getelementptr inbounds nuw %"class.fmt::v11::detail::buffer", ptr %11, i32 0, i32 3
  %19 = load ptr, ptr %7, align 8, !tbaa !28
  store ptr %19, ptr %18, align 8, !tbaa !108
  ret void
}

; Function Attrs: mustprogress uwtable
define hidden void @_ZN3fmt3v117ostreamC2ENS0_18basic_cstring_viewIcEERKNS0_6detail14ostream_paramsE(ptr noundef nonnull align 8 dereferenceable(36) %0, ptr %1, ptr noundef nonnull align 8 dereferenceable(16) %2) unnamed_addr #1 align 2 personality ptr @__gxx_personality_v0 {
  %4 = alloca %"class.fmt::v11::basic_cstring_view", align 8
  %5 = alloca ptr, align 8
  %6 = alloca ptr, align 8
  %7 = alloca %"class.fmt::v11::basic_cstring_view", align 8
  %8 = alloca ptr, align 8
  %9 = alloca i32, align 4
  %10 = getelementptr inbounds nuw %"class.fmt::v11::basic_cstring_view", ptr %4, i32 0, i32 0
  store ptr %1, ptr %10, align 8
  store ptr %0, ptr %5, align 8, !tbaa !99
  store ptr %2, ptr %6, align 8, !tbaa !101
  %11 = load ptr, ptr %5, align 8
  call void @_ZN3fmt3v116detail6bufferIcEC2EPFvRS3_mEPcmm(ptr noundef nonnull align 8 dereferenceable(32) %11, ptr noundef @_ZN3fmt3v117ostream4growERNS0_6detail6bufferIcEEm, ptr noundef null, i64 noundef 0, i64 noundef 0) #16
  %12 = getelementptr inbounds nuw %"class.fmt::v11::ostream", ptr %11, i32 0, i32 1
  call void @llvm.memcpy.p0.p0.i64(ptr align 8 %7, ptr align 8 %4, i64 8, i1 false), !tbaa.struct !103
  %13 = load ptr, ptr %6, align 8, !tbaa !101
  %14 = getelementptr inbounds nuw %"struct.fmt::v11::detail::ostream_params", ptr %13, i32 0, i32 0
  %15 = load i32, ptr %14, align 8, !tbaa !104
  %16 = getelementptr inbounds nuw %"class.fmt::v11::basic_cstring_view", ptr %7, i32 0, i32 0
  %17 = load ptr, ptr %16, align 8
  call void @_ZN3fmt3v114fileC1ENS0_18basic_cstring_viewIcEEi(ptr noundef nonnull align 4 dereferenceable(4) %12, ptr %17, i32 noundef %15)
  %18 = load ptr, ptr %6, align 8, !tbaa !101
  %19 = getelementptr inbounds nuw %"struct.fmt::v11::detail::ostream_params", ptr %18, i32 0, i32 1
  %20 = load i64, ptr %19, align 8, !tbaa !106
  %21 = invoke noalias noundef nonnull ptr @_Znam(i64 noundef %20) #23
          to label %22 unwind label %26

22:                                               ; preds = %3
  %23 = load ptr, ptr %6, align 8, !tbaa !101
  %24 = getelementptr inbounds nuw %"struct.fmt::v11::detail::ostream_params", ptr %23, i32 0, i32 1
  %25 = load i64, ptr %24, align 8, !tbaa !106
  call void @_ZN3fmt3v116detail6bufferIcE3setEPcm(ptr noundef nonnull align 8 dereferenceable(32) %11, ptr noundef %21, i64 noundef %25) #16
  ret void

26:                                               ; preds = %3
  %27 = landingpad { ptr, i32 }
          cleanup
  %28 = extractvalue { ptr, i32 } %27, 0
  store ptr %28, ptr %8, align 8
  %29 = extractvalue { ptr, i32 } %27, 1
  store i32 %29, ptr %9, align 4
  call void @_ZN3fmt3v114fileD1Ev(ptr noundef nonnull align 4 dereferenceable(4) %12) #16
  br label %30

30:                                               ; preds = %26
  %31 = load ptr, ptr %8, align 8
  %32 = load i32, ptr %9, align 4
  %33 = insertvalue { ptr, i32 } poison, ptr %31, 0
  %34 = insertvalue { ptr, i32 } %33, i32 %32, 1
  resume { ptr, i32 } %34
}