; Function Attrs: mustprogress uwtable
define hidden void @_ZN3fmt3v117ostreamC2ENS0_18basic_cstring_viewIcEERKNS0_6detail14ostream_paramsE(ptr noundef nonnull align 8 captures(none) dereferenceable(36) initializes((0, 36)) %0, ptr %1, ptr noundef nonnull readonly align 8 captures(none) dereferenceable(16) %2) unnamed_addr #6 align 2 personality ptr @__gxx_personality_v0 {
  %4 = getelementptr inbounds nuw i8, ptr %0, i64 24
  tail call void @llvm.memset.p0.i64(ptr noundef nonnull align 8 dereferenceable(24) %0, i8 0, i64 24, i1 false)
  store ptr @_ZN3fmt3v117ostream4growERNS0_6detail6bufferIcEEm, ptr %4, align 8, !tbaa !72
  %5 = getelementptr inbounds nuw i8, ptr %0, i64 32
  %6 = load i32, ptr %2, align 8, !tbaa !73
  tail call void @_ZN3fmt3v114fileC2ENS0_18basic_cstring_viewIcEEi(ptr noundef nonnull align 4 dereferenceable(4) %5, ptr %1, i32 noundef %6)
  %7 = getelementptr inbounds nuw i8, ptr %2, i64 8
  %8 = load i64, ptr %7, align 8, !tbaa !75
  %9 = invoke noalias noundef nonnull ptr @_Znam(i64 noundef %8) #32
          to label %10 unwind label %12

10:                                               ; preds = %3
  %11 = getelementptr inbounds nuw i8, ptr %0, i64 16
  store ptr %9, ptr %0, align 8, !tbaa !71
  store i64 %8, ptr %11, align 8, !tbaa !70
  ret void

12:                                               ; preds = %3
  %13 = landingpad { ptr, i32 }
          cleanup
  tail call void @_ZN3fmt3v114fileD2Ev(ptr noundef nonnull align 4 dereferenceable(4) %5) #29
  resume { ptr, i32 } %13
}